Certificate:
    Data:
        Version: 3 (0x2)
        Serial Number: 1 (0x1)
    Signature Algorithm: sha256WithRSAEncryption
        Issuer: C=ca, ST=barcelona, L=barcelona, O=edt, OU=informatica, CN=VeritatAbsoluta/emailAddress=veritat@edt.org
        Validity
            Not Before: Mar 29 19:35:53 2019 GMT
            Not After : Mar 28 19:35:53 2020 GMT
        Subject: C=eu, ST=brussels, L=waterloo, O=freedoom, OU=cat, CN=republica
        Subject Public Key Info:
            Public Key Algorithm: rsaEncryption
                Public-Key: (2048 bit)
                Modulus:
                    00:bd:25:22:b0:00:ff:7e:49:bd:ff:7a:b7:d6:37:
                    d3:c4:ec:30:57:d8:24:0a:09:e3:f1:2e:43:d5:52:
                    4a:aa:50:f1:c0:1c:88:2b:3c:4e:f8:1c:64:54:92:
                    44:b6:44:93:89:13:4c:ad:c7:53:0c:60:f9:aa:8e:
                    b2:2b:45:f9:94:ce:08:7c:52:15:7b:b5:bc:43:e8:
                    34:af:bf:34:59:a6:bd:22:b6:b9:1c:bb:65:7c:e6:
                    30:6a:d4:05:a4:40:88:b4:ee:de:68:67:3a:3b:61:
                    73:fd:b5:f9:9d:f9:e2:c9:1c:9d:91:c4:95:8e:fc:
                    2e:78:6e:ea:46:6a:cb:3f:ee:00:29:c3:7d:72:29:
                    60:eb:7e:86:80:12:80:69:a7:29:30:d1:ab:ed:a2:
                    7d:4b:cd:45:a6:7d:e5:37:0e:9a:1a:71:c1:92:f4:
                    ba:09:8c:ff:45:41:1a:08:07:d3:c5:7e:64:6f:81:
                    52:4b:47:44:88:e7:95:23:f2:14:46:b1:7c:48:37:
                    d3:fc:40:76:82:6a:06:e7:9b:83:b5:3f:82:1f:c7:
                    49:af:e8:f3:31:da:dc:46:cc:80:f3:7c:5a:52:3e:
                    72:6c:3b:6f:8c:30:3b:d4:7a:79:45:03:c6:03:50:
                    98:d2:bb:5d:45:a1:f4:49:24:ea:5d:62:67:a7:8b:
                    63:73
                Exponent: 65537 (0x10001)
        X509v3 extensions:
            X509v3 Basic Constraints: 
                CA:FALSE
            Netscape Cert Type: 
                SSL Server
            X509v3 Key Usage: 
                Digital Signature, Non Repudiation, Key Encipherment
            Netscape Comment: 
                OpenSSL Generated Certificate
            X509v3 Subject Key Identifier: 
                B0:FA:45:1F:F7:FA:CD:C7:AB:D5:43:C3:03:89:7E:E5:D3:1B:21:FC
            X509v3 Authority Key Identifier: 
                keyid:C7:58:F2:1C:98:6E:50:77:C6:7C:4D:2C:AD:39:62:39:7E:DB:72:83

            X509v3 Subject Alternative Name: 
                <EMPTY>

            X509v3 Extended Key Usage: critical
                Time Stamping
    Signature Algorithm: sha256WithRSAEncryption
         b4:24:77:6d:77:0d:bc:42:d9:a6:1f:f8:4b:cf:de:b1:0c:53:
         fd:f4:02:e5:21:c5:52:2a:33:d0:ae:6a:69:00:a6:0f:21:1c:
         e2:c2:d2:9e:5c:84:09:1b:f4:78:4b:d9:a6:0c:ac:45:f7:a9:
         60:23:9b:07:97:20:4d:08:20:61:bb:c9:ec:6a:39:d6:8c:67:
         06:bb:6e:40:e6:3d:cd:a2:1b:c3:af:27:90:0e:fb:97:10:88:
         6a:30:73:aa:ea:d6:98:64:b3:c6:01:28:59:a1:ad:e5:cd:1c:
         24:8b:d1:c6:0a:8d:d3:a6:12:54:be:f5:f0:10:fe:a5:e2:04:
         1b:f5:51:c1:fd:52:03:ef:2e:2e:80:70:74:f1:3f:66:99:0c:
         c0:3e:e4:e5:82:15:c4:2c:f4:dd:ac:19:f5:5d:ed:e0:e1:cc:
         3f:23:7a:0a:37:4e:d6:0f:ff:e6:0c:01:e4:26:a6:ba:0d:ed:
         d8:48:69:d1:c1:0a:7a:20:42:9c:fb:e8:cf:ba:3f:08:f8:1d:
         c3:53:fc:f0:6e:68:c5:46:c9:0f:fa:59:74:17:6e:bb:e7:06:
         23:0e:bf:f4:f8:99:82:d6:1a:eb:19:89:75:2e:73:e1:7d:7a:
         92:4e:53:1f:47:a9:64:c5:24:f7:bb:b7:0a:74:df:fc:d2:3a:
         06:e0:85:3e
-----BEGIN CERTIFICATE-----
MIIENzCCAx+gAwIBAgIBATANBgkqhkiG9w0BAQsFADCBkzELMAkGA1UEBhMCY2Ex
EjAQBgNVBAgMCWJhcmNlbG9uYTESMBAGA1UEBwwJYmFyY2Vsb25hMQwwCgYDVQQK
DANlZHQxFDASBgNVBAsMC2luZm9ybWF0aWNhMRgwFgYDVQQDDA9WZXJpdGF0QWJz
b2x1dGExHjAcBgkqhkiG9w0BCQEWD3Zlcml0YXRAZWR0Lm9yZzAeFw0xOTAzMjkx
OTM1NTNaFw0yMDAzMjgxOTM1NTNaMGgxCzAJBgNVBAYTAmV1MREwDwYDVQQIDAhi
cnVzc2VsczERMA8GA1UEBwwId2F0ZXJsb28xETAPBgNVBAoMCGZyZWVkb29tMQww
CgYDVQQLDANjYXQxEjAQBgNVBAMMCXJlcHVibGljYTCCASIwDQYJKoZIhvcNAQEB
BQADggEPADCCAQoCggEBAL0lIrAA/35Jvf96t9Y308TsMFfYJAoJ4/EuQ9VSSqpQ
8cAciCs8TvgcZFSSRLZEk4kTTK3HUwxg+aqOsitF+ZTOCHxSFXu1vEPoNK+/NFmm
vSK2uRy7ZXzmMGrUBaRAiLTu3mhnOjthc/21+Z354skcnZHElY78Lnhu6kZqyz/u
ACnDfXIpYOt+hoASgGmnKTDRq+2ifUvNRaZ95TcOmhpxwZL0ugmM/0VBGggH08V+
ZG+BUktHRIjnlSPyFEaxfEg30/xAdoJqBuebg7U/gh/HSa/o8zHa3EbMgPN8WlI+
cmw7b4wwO9R6eUUDxgNQmNK7XUWh9Ekk6l1iZ6eLY3MCAwEAAaOBvzCBvDAJBgNV
HRMEAjAAMBEGCWCGSAGG+EIBAQQEAwIGQDALBgNVHQ8EBAMCBeAwLAYJYIZIAYb4
QgENBB8WHU9wZW5TU0wgR2VuZXJhdGVkIENlcnRpZmljYXRlMB0GA1UdDgQWBBSw
+kUf9/rNx6vVQ8MDiX7l0xsh/DAfBgNVHSMEGDAWgBTHWPIcmG5Qd8Z8TSytOWI5
fttygzAJBgNVHREEAjAAMBYGA1UdJQEB/wQMMAoGCCsGAQUFBwMIMA0GCSqGSIb3
DQEBCwUAA4IBAQC0JHdtdw28QtmmH/hLz96xDFP99ALlIcVSKjPQrmppAKYPIRzi
wtKeXIQJG/R4S9mmDKxF96lgI5sHlyBNCCBhu8nsajnWjGcGu25A5j3NohvDryeQ
DvuXEIhqMHOq6taYZLPGAShZoa3lzRwki9HGCo3TphJUvvXwEP6l4gQb9VHB/VID
7y4ugHB08T9mmQzAPuTlghXELPTdrBn1Xe3g4cw/I3oKN07WD//mDAHkJqa6De3Y
SGnRwQp6IEKc++jPuj8I+B3DU/zwbmjFRskP+ll0F2675wYjDr/0+JmC1hrrGYl1
LnPhfXqSTlMfR6lkxST3u7cKdN/80joG4IU+
-----END CERTIFICATE-----
